target datalayout = "e-m:e-p270:32:32-p271:32:32-p272:64:64-i64:64-i128:128-f80:128-n8:16:32:64-S128"
target triple = "x86_64-pc-linux-gnu"

@.str.10 = private unnamed_addr constant [8 x i8] c"PALETTE\00", align 1

; Function Attrs: nounwind uwtable
define internal i32 @find_palette(i64 noundef %0, ptr noundef %1, ptr noundef %2, ptr noundef %3) #0 {
  %5 = alloca i32, align 4
  %6 = alloca i64, align 8
  %7 = alloca ptr, align 8
  %8 = alloca ptr, align 8
  %9 = alloca ptr, align 8
  %10 = alloca i32, align 4
  %11 = alloca i32, align 4
  store i64 %0, ptr %6, align 8, !tbaa !3
  store ptr %1, ptr %7, align 8, !tbaa !7
  store ptr %2, ptr %8, align 8, !tbaa !14
  store ptr %3, ptr %9, align 8, !tbaa !14
  call void @llvm.lifetime.start.p0(i64 4, ptr %10) #7
  store i32 0, ptr %10, align 4, !tbaa !15
  %12 = load ptr, ptr %7, align 8, !tbaa !7
  %13 = icmp eq ptr %12, null
  br i1 %13, label %14, label %15

14:                                               ; preds = %4
  store i32 -1, ptr %5, align 4
  store i32 1, ptr %11, align 4
  br label %22

15:                                               ; preds = %4
  %16 = load ptr, ptr %7, align 8, !tbaa !7
  %17 = call i32 @strncmp(ptr noundef %16, ptr noundef @.str.10, i64 noundef 7) #8
  %18 = icmp eq i32 %17, 0
  br i1 %18, label %19, label %20

19:                                               ; preds = %15
  store i32 1, ptr %10, align 4, !tbaa !15
  br label %20

20:                                               ; preds = %19, %15
  %21 = load i32, ptr %10, align 4, !tbaa !15
  store i32 %21, ptr %5, align 4
  store i32 1, ptr %11, align 4
  br label %22

22:                                               ; preds = %20, %14
  call void @llvm.lifetime.end.p0(i64 4, ptr %10) #7
  %23 = load i32, ptr %5, align 4
  ret i32 %23
}