; Function Attrs: mustprogress nofree nounwind willreturn memory(argmem: read) uwtable
define internal range(i32 -1, 2) i32 @find_palette(i64 %0, ptr noundef readonly captures(address_is_null) %1, ptr readnone captures(none) %2, ptr readnone captures(none) %3) #4 {
  %5 = icmp eq ptr %1, null
  br i1 %5, label %9, label %6

6:                                                ; preds = %4
  %7 = tail call i32 @strncmp(ptr noundef nonnull dereferenceable(1) %1, ptr noundef nonnull dereferenceable(8) @.str.10, i64 noundef 7) #9
  %8 = icmp eq i32 %7, 0
  %spec.select = zext i1 %8 to i32
  br label %9

9:                                                ; preds = %4, %6
  %.03 = phi i32 [ %spec.select, %6 ], [ -1, %4 ]
  ret i32 %.03
}